; Function Attrs: mustprogress uwtable
define hidden void @_ZN19OpenColorIO_v2_5dev17CTFReaderRangeElt3endEv(ptr noundef nonnull readonly align 8 captures(none) dereferenceable(120) %0) unnamed_addr #4 align 2 {
  %2 = getelementptr inbounds nuw i8, ptr %0, i64 104
  %3 = load ptr, ptr %2, align 8, !tbaa !1203
  %4 = getelementptr inbounds nuw i8, ptr %0, i64 96
  %5 = load i32, ptr %4, align 8, !tbaa !252
  %6 = getelementptr inbounds nuw i8, ptr %3, i64 216
  store i32 %5, ptr %6, align 8, !tbaa !1205
  %7 = getelementptr inbounds nuw i8, ptr %0, i64 100
  %8 = load i32, ptr %7, align 4, !tbaa !255
  %9 = getelementptr inbounds nuw i8, ptr %3, i64 220
  store i32 %8, ptr %9, align 4, !tbaa !1207
  tail call void @_ZN19OpenColorIO_v2_5dev11RangeOpData9normalizeEv(ptr noundef nonnull align 8 dereferenceable(228) %3)
  %10 = load ptr, ptr %2, align 8, !tbaa !1203
  %11 = load ptr, ptr %10, align 8, !tbaa !9
  %12 = getelementptr inbounds nuw i8, ptr %11, i64 16
  %13 = load ptr, ptr %12, align 8
  tail call void %13(ptr noundef nonnull align 8 dereferenceable(228) %10)
  ret void
}